; Function Attrs: mustprogress nofree norecurse nosync nounwind willreturn memory(argmem: read) uwtable
define i64 @zip_entry_uncomp_size(ptr noundef readonly captures(address_is_null) %0) local_unnamed_addr #11 {
  %.not = icmp eq ptr %0, null
  br i1 %.not, label %5, label %2

2:                                                ; preds = %1
  %3 = getelementptr inbounds nuw i8, ptr %0, i64 136
  %4 = load i64, ptr %3, align 8
  br label %5

5:                                                ; preds = %1, %2
  %6 = phi i64 [ %4, %2 ], [ 0, %1 ]
  ret i64 %6
}